; Function Attrs: null_pointer_is_valid sspstrong uwtable
define internal void @fragment_addresses_ports_free_persistent_key(ptr noundef %0) #2 {
  %.not = icmp eq ptr %0, null
  br i1 %.not, label %22, label %2

2:                                                ; preds = %1
  %3 = load i32, ptr %0, align 8
  %.not.i.i = icmp eq i32 %3, 0
  br i1 %.not.i.i, label %free_address.exit, label %4

4:                                                ; preds = %2
  %5 = getelementptr inbounds nuw i8, ptr %0, i64 4
  %6 = load i32, ptr %5, align 4
  %7 = icmp sgt i32 %6, 0
  br i1 %7, label %8, label %free_address.exit

8:                                                ; preds = %4
  %9 = getelementptr inbounds nuw i8, ptr %0, i64 16
  %10 = load ptr, ptr %9, align 8
  %.not6.i.i = icmp eq ptr %10, null
  br i1 %.not6.i.i, label %free_address.exit, label %11

11:                                               ; preds = %8
  tail call void @wmem_free(ptr noundef null, ptr noundef nonnull %10)
  br label %free_address.exit

free_address.exit:                                ; preds = %2, %4, %8, %11
  tail call void @llvm.memset.p0.i64(ptr noundef nonnull align 8 dereferenceable(24) %0, i8 0, i64 24, i1 false)
  %12 = getelementptr inbounds nuw i8, ptr %0, i64 24
  %13 = load i32, ptr %12, align 8
  %.not.i.i5 = icmp eq i32 %13, 0
  br i1 %.not.i.i5, label %free_address.exit7, label %14

14:                                               ; preds = %free_address.exit
  %15 = getelementptr inbounds nuw i8, ptr %0, i64 28
  %16 = load i32, ptr %15, align 4
  %17 = icmp sgt i32 %16, 0
  br i1 %17, label %18, label %free_address.exit7

18:                                               ; preds = %14
  %19 = getelementptr inbounds nuw i8, ptr %0, i64 40
  %20 = load ptr, ptr %19, align 8
  %.not6.i.i6 = icmp eq ptr %20, null
  br i1 %.not6.i.i6, label %free_address.exit7, label %21

21:                                               ; preds = %18
  tail call void @wmem_free(ptr noundef null, ptr noundef nonnull %20)
  br label %free_address.exit7

free_address.exit7:                               ; preds = %free_address.exit, %14, %18, %21
  tail call void @llvm.memset.p0.i64(ptr noundef nonnull align 8 dereferenceable(24) %12, i8 0, i64 24, i1 false)
  tail call void @g_slice_free1(i64 noundef 64, ptr noundef nonnull %0)
  br label %22

22:                                               ; preds = %free_address.exit7, %1
  ret void
}